; Function Attrs: mustprogress uwtable
define dso_local void @_ZN5cmRST10ProcessRSTERSi(ptr noundef nonnull align 8 dereferenceable(9200) %0, ptr noundef nonnull align 8 dereferenceable(16) %1) local_unnamed_addr #3 align 2 personality ptr @__gxx_personality_v0 {
  %3 = alloca %"class.std::__cxx11::basic_string", align 8
  call void @llvm.lifetime.start.p0(i64 32, ptr nonnull %3) #22
  %4 = getelementptr inbounds nuw i8, ptr %3, i64 16
  store ptr %4, ptr %3, align 8, !tbaa !9
  %5 = getelementptr inbounds nuw i8, ptr %3, i64 8
  store i64 0, ptr %5, align 8, !tbaa !15
  store i8 0, ptr %4, align 8, !tbaa !16
  br label %6

6:                                                ; preds = %9, %2
  %7 = invoke noundef zeroext i1 @_ZN5cmsys11SystemTools17GetLineFromStreamERSiRNSt7__cxx1112basic_stringIcSt11char_traitsIcESaIcEEEPbm(ptr noundef nonnull align 8 dereferenceable(16) %1, ptr noundef nonnull align 8 dereferenceable(32) %3, ptr noundef null, i64 noundef -1)
          to label %8 unwind label %.loopexit

8:                                                ; preds = %6
  br i1 %7, label %9, label %17

9:                                                ; preds = %8
  invoke void @_ZN5cmRST11ProcessLineERKNSt7__cxx1112basic_stringIcSt11char_traitsIcESaIcEEE(ptr noundef nonnull align 8 dereferenceable(9200) %0, ptr noundef nonnull align 8 dereferenceable(32) %3)
          to label %6 unwind label %.loopexit, !llvm.loop !74

.loopexit:                                        ; preds = %6, %9
  %lpad.loopexit = landingpad { ptr, i32 }
          cleanup
  br label %10

.loopexit.split-lp:                               ; preds = %17
  %lpad.loopexit.split-lp = landingpad { ptr, i32 }
          cleanup
  br label %10

10:                                               ; preds = %.loopexit.split-lp, %.loopexit
  %lpad.phi = phi { ptr, i32 } [ %lpad.loopexit, %.loopexit ], [ %lpad.loopexit.split-lp, %.loopexit.split-lp ]
  %11 = load ptr, ptr %3, align 8, !tbaa !12
  %12 = icmp eq ptr %11, %4
  br i1 %12, label %_ZNKSt7__cxx1112basic_stringIcSt11char_traitsIcESaIcEE11_M_is_localEv.exit.thread.i.i, label %_ZNKSt7__cxx1112basic_stringIcSt11char_traitsIcESaIcEE11_M_is_localEv.exit.i.i

_ZNKSt7__cxx1112basic_stringIcSt11char_traitsIcESaIcEE11_M_is_localEv.exit.thread.i.i: ; preds = %10
  %13 = load i64, ptr %5, align 8, !tbaa !15
  %14 = icmp ult i64 %13, 16
  call void @llvm.assume(i1 %14)
  br label %_ZNSt7__cxx1112basic_stringIcSt11char_traitsIcESaIcEED2Ev.exit

_ZNKSt7__cxx1112basic_stringIcSt11char_traitsIcESaIcEE11_M_is_localEv.exit.i.i: ; preds = %10
  %15 = load i64, ptr %4, align 8, !tbaa !16
  %16 = add i64 %15, 1
  call void @_ZdlPvm(ptr noundef %11, i64 noundef %16) #23
  br label %_ZNSt7__cxx1112basic_stringIcSt11char_traitsIcESaIcEED2Ev.exit

_ZNSt7__cxx1112basic_stringIcSt11char_traitsIcESaIcEED2Ev.exit: ; preds = %_ZNKSt7__cxx1112basic_stringIcSt11char_traitsIcESaIcEE11_M_is_localEv.exit.thread.i.i, %_ZNKSt7__cxx1112basic_stringIcSt11char_traitsIcESaIcEE11_M_is_localEv.exit.i.i
  call void @llvm.lifetime.end.p0(i64 32, ptr nonnull %3) #22
  resume { ptr, i32 } %lpad.phi

17:                                               ; preds = %8
  invoke void @_ZN5cmRST5ResetEv(ptr noundef nonnull align 8 dereferenceable(9200) %0)
          to label %18 unwind label %.loopexit.split-lp

18:                                               ; preds = %17
  %19 = load ptr, ptr %3, align 8, !tbaa !12
  %20 = icmp eq ptr %19, %4
  br i1 %20, label %_ZNKSt7__cxx1112basic_stringIcSt11char_traitsIcESaIcEE11_M_is_localEv.exit.thread.i.i4, label %_ZNKSt7__cxx1112basic_stringIcSt11char_traitsIcESaIcEE11_M_is_localEv.exit.i.i3

_ZNKSt7__cxx1112basic_stringIcSt11char_traitsIcESaIcEE11_M_is_localEv.exit.thread.i.i4: ; preds = %18
  %21 = load i64, ptr %5, align 8, !tbaa !15
  %22 = icmp ult i64 %21, 16
  call void @llvm.assume(i1 %22)
  br label %_ZNSt7__cxx1112basic_stringIcSt11char_traitsIcESaIcEED2Ev.exit5

_ZNKSt7__cxx1112basic_stringIcSt11char_traitsIcESaIcEE11_M_is_localEv.exit.i.i3: ; preds = %18
  %23 = load i64, ptr %4, align 8, !tbaa !16
  %24 = add i64 %23, 1
  call void @_ZdlPvm(ptr noundef %19, i64 noundef %24) #23
  br label %_ZNSt7__cxx1112basic_stringIcSt11char_traitsIcESaIcEED2Ev.exit5

_ZNSt7__cxx1112basic_stringIcSt11char_traitsIcESaIcEED2Ev.exit5: ; preds = %_ZNKSt7__cxx1112basic_stringIcSt11char_traitsIcESaIcEE11_M_is_localEv.exit.thread.i.i4, %_ZNKSt7__cxx1112basic_stringIcSt11char_traitsIcESaIcEE11_M_is_localEv.exit.i.i3
  call void @llvm.lifetime.end.p0(i64 32, ptr nonnull %3) #22
  ret void
}